; Function Attrs: mustprogress nofree norecurse nosync nounwind willreturn memory(read, inaccessiblemem: none) uwtable
define hidden noundef i32 @_ZNK8expr2var6to_varEP4expr(ptr nocapture noundef nonnull readonly align 8 dereferenceable(41) %this, ptr nocapture noundef readonly %n) local_unnamed_addr #8 align 2 {
entry:
  %m_id2map = getelementptr inbounds i8, ptr %this, i64 8
  %0 = load ptr, ptr %m_id2map, align 8
  %cmp.i.i = icmp eq ptr %0, null
  br i1 %cmp.i.i, label %if.end, label %_ZNK6vectorIjLb0EjE3getEjRKj.exit

_ZNK6vectorIjLb0EjE3getEjRKj.exit:                ; preds = %entry
  %1 = load i32, ptr %n, align 4
  %arrayidx.i.i = getelementptr inbounds i8, ptr %0, i64 -4
  %2 = load i32, ptr %arrayidx.i.i, align 4
  %cmp.not.i = icmp ugt i32 %2, %1
  br i1 %cmp.not.i, label %_ZNK6vectorIjLb0EjE3getEjRKj.exit.cont, label %if.end

_ZNK6vectorIjLb0EjE3getEjRKj.exit.cont:           ; preds = %_ZNK6vectorIjLb0EjE3getEjRKj.exit
  %idxprom.i = zext i32 %1 to i64
  %arrayidx.i = getelementptr inbounds i32, ptr %0, i64 %idxprom.i
  %.then.val = load i32, ptr %arrayidx.i, align 4
  %cmp.not = icmp eq i32 %.then.val, -1
  br i1 %cmp.not, label %if.end, label %if.then

if.then:                                          ; preds = %_ZNK6vectorIjLb0EjE3getEjRKj.exit.cont
  %m_mapping = getelementptr inbounds i8, ptr %this, i64 16
  %3 = load ptr, ptr %m_mapping, align 8
  %idxprom.i3 = zext i32 %.then.val to i64
  %m_value = getelementptr inbounds %"struct.obj_map<expr, unsigned int>::key_data", ptr %3, i64 %idxprom.i3, i32 1
  %4 = load i32, ptr %m_value, align 8
  br label %if.end

if.end:                                           ; preds = %entry, %_ZNK6vectorIjLb0EjE3getEjRKj.exit, %if.then, %_ZNK6vectorIjLb0EjE3getEjRKj.exit.cont
  %v.0 = phi i32 [ %4, %if.then ], [ -1, %_ZNK6vectorIjLb0EjE3getEjRKj.exit.cont ], [ -1, %_ZNK6vectorIjLb0EjE3getEjRKj.exit ], [ -1, %entry ]
  ret i32 %v.0
}